target datalayout = "e-m:e-p270:32:32-p271:32:32-p272:64:64-i64:64-i128:128-f80:128-n8:16:32:64-S128"
target triple = "x86_64-pc-linux-gnu"

%class.SharedPathTable = type { ptr }
%"class.MetaspaceClosure::Ref" = type { ptr, i32, ptr, ptr }
%"class.MetaspaceClosure::ArrayRef.30" = type { %"class.MetaspaceClosure::Ref", ptr }

; Function Attrs: mustprogress nounwind uwtable
define linkonce_odr hidden void @_ZN16MetaspaceClosure3RefC2ENS_11WritabilityE(ptr noundef nonnull align 8 dereferenceable(32) %0, i32 noundef %1) unnamed_addr #1 comdat align 2 {
  %3 = alloca ptr, align 8
  %4 = alloca i32, align 4
  store ptr %0, ptr %3, align 8
  store i32 %1, ptr %4, align 4
  %5 = load ptr, ptr %3, align 8
  store ptr getelementptr inbounds inrange(-16, 72) ({ [11 x ptr] }, ptr @_ZTVN16MetaspaceClosure3RefE, i32 0, i32 0, i32 2), ptr %5, align 8
  %6 = getelementptr inbounds %"class.MetaspaceClosure::Ref", ptr %5, i32 0, i32 1
  %7 = load i32, ptr %4, align 4
  store i32 %7, ptr %6, align 8
  %8 = getelementptr inbounds %"class.MetaspaceClosure::Ref", ptr %5, i32 0, i32 2
  store ptr null, ptr %8, align 8
  %9 = getelementptr inbounds %"class.MetaspaceClosure::Ref", ptr %5, i32 0, i32 3
  store ptr null, ptr %9, align 8
  ret void
}

; Function Attrs: mustprogress nounwind uwtable
define linkonce_odr hidden void @_ZN16MetaspaceClosure8ArrayRefIP20SharedClassPathEntryEC2EPP5ArrayIS2_ENS_11WritabilityE(ptr noundef nonnull align 8 dereferenceable(40) %0, ptr noundef %1, i32 noundef %2) unnamed_addr #1 comdat align 2 {
  %4 = alloca ptr, align 8
  %5 = alloca ptr, align 8
  %6 = alloca i32, align 4
  store ptr %0, ptr %4, align 8
  store ptr %1, ptr %5, align 8
  store i32 %2, ptr %6, align 4
  %7 = load ptr, ptr %4, align 8
  %8 = load i32, ptr %6, align 4
  call void @_ZN16MetaspaceClosure3RefC2ENS_11WritabilityE(ptr noundef nonnull align 8 dereferenceable(32) %7, i32 noundef %8)
  store ptr getelementptr inbounds inrange(-16, 72) ({ [11 x ptr] }, ptr @_ZTVN16MetaspaceClosure8ArrayRefIP20SharedClassPathEntryEE, i32 0, i32 0, i32 2), ptr %7, align 8
  %9 = getelementptr inbounds %"class.MetaspaceClosure::ArrayRef.30", ptr %7, i32 0, i32 1
  %10 = load ptr, ptr %5, align 8
  store ptr %10, ptr %9, align 8
  ret void
}

; Function Attrs: mustprogress nounwind uwtable
define linkonce_odr hidden void @_ZN16MetaspaceClosure18MSOPointerArrayRefI20SharedClassPathEntryEC2EPP5ArrayIPS1_ENS_11WritabilityE(ptr noundef nonnull align 8 dereferenceable(40) %0, ptr noundef %1, i32 noundef %2) unnamed_addr #1 comdat align 2 {
  %4 = alloca ptr, align 8
  %5 = alloca ptr, align 8
  %6 = alloca i32, align 4
  store ptr %0, ptr %4, align 8
  store ptr %1, ptr %5, align 8
  store i32 %2, ptr %6, align 4
  %7 = load ptr, ptr %4, align 8
  %8 = load ptr, ptr %5, align 8
  %9 = load i32, ptr %6, align 4
  call void @_ZN16MetaspaceClosure8ArrayRefIP20SharedClassPathEntryEC2EPP5ArrayIS2_ENS_11WritabilityE(ptr noundef nonnull align 8 dereferenceable(40) %7, ptr noundef %8, i32 noundef %9)
  store ptr getelementptr inbounds inrange(-16, 72) ({ [11 x ptr] }, ptr @_ZTVN16MetaspaceClosure18MSOPointerArrayRefI20SharedClassPathEntryEE, i32 0, i32 0, i32 2), ptr %7, align 8
  ret void
}

; Function Attrs: mustprogress nounwind uwtable
define linkonce_odr hidden void @_ZN16MetaspaceClosure13push_with_refINS_18MSOPointerArrayRefI20SharedClassPathEntryEE5ArrayIPS2_EEEvPPT0_NS_11WritabilityE(ptr noundef nonnull align 8 dereferenceable(32) %0, ptr noundef %1, i32 noundef %2) #1 comdat align 2 {
  %4 = alloca i64, align 8
  %5 = alloca i8, align 1
  %6 = alloca i64, align 8
  %7 = alloca ptr, align 8
  %8 = alloca ptr, align 8
  %9 = alloca i32, align 4
  store ptr %0, ptr %7, align 8
  store ptr %1, ptr %8, align 8
  store i32 %2, ptr %9, align 4
  %10 = load ptr, ptr %7, align 8
  store i64 40, ptr %6, align 8
  %11 = load i64, ptr %6, align 8
  store i64 %11, ptr %4, align 8
  store i8 24, ptr %5, align 1
  %12 = load i64, ptr %4, align 8
  %13 = load i8, ptr %5, align 1
  %14 = call noundef ptr @_Z12AllocateHeapm8MEMFLAGSN17AllocFailStrategy13AllocFailEnumE(i64 noundef %12, i8 noundef zeroext %13, i32 noundef 0) #13
  %15 = load ptr, ptr %8, align 8
  %16 = load i32, ptr %9, align 4
  call void @_ZN16MetaspaceClosure18MSOPointerArrayRefI20SharedClassPathEntryEC2EPP5ArrayIPS1_ENS_11WritabilityE(ptr noundef nonnull align 8 dereferenceable(40) %14, ptr noundef %15, i32 noundef %16)
  call void @_ZN16MetaspaceClosure9push_implEPNS_3RefE(ptr noundef nonnull align 8 dereferenceable(32) %10, ptr noundef %14)
  ret void
}

; Function Attrs: mustprogress nounwind uwtable
define linkonce_odr hidden void @_ZN16MetaspaceClosure4pushI20SharedClassPathEntryEEvPP5ArrayIPT_ENS_11WritabilityE(ptr noundef nonnull align 8 dereferenceable(32) %0, ptr noundef %1, i32 noundef %2) #1 comdat align 2 {
  %4 = alloca ptr, align 8
  %5 = alloca ptr, align 8
  %6 = alloca i32, align 4
  store ptr %0, ptr %4, align 8
  store ptr %1, ptr %5, align 8
  store i32 %2, ptr %6, align 4
  %7 = load ptr, ptr %4, align 8
  %8 = load ptr, ptr %5, align 8
  %9 = load i32, ptr %6, align 4
  call void @_ZN16MetaspaceClosure13push_with_refINS_18MSOPointerArrayRefI20SharedClassPathEntryEE5ArrayIPS2_EEEvPPT0_NS_11WritabilityE(ptr noundef nonnull align 8 dereferenceable(32) %7, ptr noundef %8, i32 noundef %9)
  ret void
}

; Function Attrs: mustprogress nounwind uwtable
define hidden void @_ZN15SharedPathTable21metaspace_pointers_doEP16MetaspaceClosure(ptr noundef nonnull align 8 dereferenceable(8) %0, ptr noundef %1) #1 align 2 {
  %3 = alloca ptr, align 8
  %4 = alloca ptr, align 8
  store ptr %0, ptr %3, align 8
  store ptr %1, ptr %4, align 8
  %5 = load ptr, ptr %3, align 8
  %6 = load ptr, ptr %4, align 8
  %7 = getelementptr inbounds %class.SharedPathTable, ptr %5, i32 0, i32 0
  call void @_ZN16MetaspaceClosure4pushI20SharedClassPathEntryEEvPP5ArrayIPT_ENS_11WritabilityE(ptr noundef nonnull align 8 dereferenceable(32) %6, ptr noundef %7, i32 noundef 2)
  ret void
}