; Function Attrs: mustprogress nounwind uwtable
define hidden void @_ZN15SharedPathTable21metaspace_pointers_doEP16MetaspaceClosure(ptr noundef nonnull align 8 dereferenceable(8) %0, ptr noundef %1) local_unnamed_addr #0 align 2 {
  %3 = tail call noundef ptr @_Z12AllocateHeapm8MEMFLAGSN17AllocFailStrategy13AllocFailEnumE(i64 noundef 40, i8 noundef zeroext 24, i32 noundef 0) #25
  %4 = getelementptr inbounds i8, ptr %3, i64 8
  store i32 2, ptr %4, align 8
  %5 = getelementptr inbounds i8, ptr %3, i64 16
  tail call void @llvm.memset.p0.i64(ptr noundef nonnull align 8 dereferenceable(16) %5, i8 0, i64 16, i1 false)
  %6 = getelementptr inbounds i8, ptr %3, i64 32
  store ptr %0, ptr %6, align 8
  store ptr getelementptr inbounds inrange(-16, 72) (i8, ptr @_ZTVN16MetaspaceClosure18MSOPointerArrayRefI20SharedClassPathEntryEE, i64 16), ptr %3, align 8
  tail call void @_ZN16MetaspaceClosure9push_implEPNS_3RefE(ptr noundef nonnull align 8 dereferenceable(32) %1, ptr noundef nonnull %3) #25
  ret void
}